; Function Attrs: mustprogress uwtable
define dso_local noundef ptr @_ZN4Luau16makeIntersectionERNS_9TypeArenaEOSt6vectorIPKNS_4TypeESaIS5_EE(ptr noundef nonnull align 8 dereferenceable(88) %0, ptr noundef nonnull align 8 captures(none) dereferenceable(24) %1) local_unnamed_addr #4 personality ptr @__gxx_personality_v0 {
  %3 = alloca %"struct.Luau::IntersectionType", align 8
  %4 = load ptr, ptr %1, align 8, !tbaa !19
  store ptr %4, ptr %3, align 8, !tbaa !19
  %5 = getelementptr inbounds nuw i8, ptr %3, i64 8
  %6 = getelementptr inbounds nuw i8, ptr %1, i64 8
  %7 = load ptr, ptr %6, align 8, !tbaa !23
  store ptr %7, ptr %5, align 8, !tbaa !23
  %8 = getelementptr inbounds nuw i8, ptr %3, i64 16
  %9 = getelementptr inbounds nuw i8, ptr %1, i64 16
  %10 = load ptr, ptr %9, align 8, !tbaa !24
  store ptr %10, ptr %8, align 8, !tbaa !24
  tail call void @llvm.memset.p0.i64(ptr noundef nonnull align 8 dereferenceable(24) %1, i8 0, i64 24, i1 false)
  %11 = invoke noundef ptr @_ZN4Luau9TypeArena7addTypeINS_16IntersectionTypeEEEPKNS_4TypeET_(ptr noundef nonnull align 8 dereferenceable(88) %0, ptr noundef nonnull %3)
          to label %12 unwind label %19

12:                                               ; preds = %2
  %13 = load ptr, ptr %3, align 8, !tbaa !19
  %.not.i.i.i.i = icmp eq ptr %13, null
  br i1 %.not.i.i.i.i, label %_ZN4Luau16IntersectionTypeD2Ev.exit, label %14

14:                                               ; preds = %12
  %15 = load ptr, ptr %8, align 8, !tbaa !24
  %16 = ptrtoint ptr %15 to i64
  %17 = ptrtoint ptr %13 to i64
  %18 = sub i64 %16, %17
  call void @_ZdlPvm(ptr noundef nonnull %13, i64 noundef %18) #30
  br label %_ZN4Luau16IntersectionTypeD2Ev.exit

_ZN4Luau16IntersectionTypeD2Ev.exit:              ; preds = %12, %14
  ret ptr %11

19:                                               ; preds = %2
  %20 = landingpad { ptr, i32 }
          cleanup
  %21 = load ptr, ptr %3, align 8, !tbaa !19
  %.not.i.i.i.i3 = icmp eq ptr %21, null
  br i1 %.not.i.i.i.i3, label %_ZN4Luau16IntersectionTypeD2Ev.exit4, label %22

22:                                               ; preds = %19
  %23 = load ptr, ptr %8, align 8, !tbaa !24
  %24 = ptrtoint ptr %23 to i64
  %25 = ptrtoint ptr %21 to i64
  %26 = sub i64 %24, %25
  call void @_ZdlPvm(ptr noundef nonnull %21, i64 noundef %26) #30
  br label %_ZN4Luau16IntersectionTypeD2Ev.exit4

_ZN4Luau16IntersectionTypeD2Ev.exit4:             ; preds = %19, %22
  resume { ptr, i32 } %20
}